target datalayout = "e-m:e-p270:32:32-p271:32:32-p272:64:64-i64:64-i128:128-f80:128-n8:16:32:64-S128"
target triple = "x86_64-pc-linux-gnu"

%"class.gmx::SelectionTreeElement" = type { i32, %struct.gmx_ana_selvalue_t, ptr, i32, %union.anon.30, ptr, ptr, %"class.std::shared_ptr", %"class.std::shared_ptr", %"class.std::__cxx11::basic_string", %"struct.gmx::SelectionLocation" }
%struct.gmx_ana_selvalue_t = type { i32, i32, %union.anon.29, i32 }
%union.anon.29 = type { ptr }
%union.anon.30 = type { %struct.anon }
%struct.anon = type { ptr, ptr, ptr, ptr }
%"class.std::shared_ptr" = type { %"class.std::__shared_ptr" }
%"class.std::__shared_ptr" = type { ptr, %"class.std::__shared_count" }
%"class.std::__shared_count" = type { ptr }
%"class.std::__cxx11::basic_string" = type { %"struct.std::__cxx11::basic_string<char>::_Alloc_hider", i64, %union.anon }
%"struct.std::__cxx11::basic_string<char>::_Alloc_hider" = type { ptr }
%union.anon = type { i64, [8 x i8] }
%"struct.gmx::SelectionLocation" = type { i32, i32 }
%struct.gmx_ana_selparam_t = type { ptr, %struct.gmx_ana_selvalue_t, ptr, i32 }

; Function Attrs: mustprogress nounwind uwtable
define linkonce_odr noundef ptr @_ZNKSt12__shared_ptrIN3gmx20SelectionTreeElementELN9__gnu_cxx12_Lock_policyE2EE3getEv(ptr noundef nonnull align 8 dereferenceable(16) %0) #0 comdat align 2 {
  %2 = alloca ptr, align 8
  store ptr %0, ptr %2, align 8
  %3 = load ptr, ptr %2, align 8
  %4 = getelementptr inbounds %"class.std::__shared_ptr", ptr %3, i32 0, i32 0
  %5 = load ptr, ptr %4, align 8
  ret ptr %5
}

; Function Attrs: mustprogress nounwind uwtable
define linkonce_odr noundef ptr @_ZNKSt19__shared_ptr_accessIN3gmx20SelectionTreeElementELN9__gnu_cxx12_Lock_policyE2ELb0ELb0EE6_M_getEv(ptr noundef nonnull align 1 dereferenceable(1) %0) #0 comdat align 2 {
  %2 = alloca ptr, align 8
  store ptr %0, ptr %2, align 8
  %3 = load ptr, ptr %2, align 8
  %4 = call noundef ptr @_ZNKSt12__shared_ptrIN3gmx20SelectionTreeElementELN9__gnu_cxx12_Lock_policyE2EE3getEv(ptr noundef nonnull align 8 dereferenceable(16) %3) #9
  ret ptr %4
}

; Function Attrs: mustprogress nounwind uwtable
define linkonce_odr noundef ptr @_ZNKSt19__shared_ptr_accessIN3gmx20SelectionTreeElementELN9__gnu_cxx12_Lock_policyE2ELb0ELb0EEptEv(ptr noundef nonnull align 1 dereferenceable(1) %0) #0 comdat align 2 {
  %2 = alloca ptr, align 8
  store ptr %0, ptr %2, align 8
  %3 = load ptr, ptr %2, align 8
  %4 = call noundef ptr @_ZNKSt19__shared_ptr_accessIN3gmx20SelectionTreeElementELN9__gnu_cxx12_Lock_policyE2ELb0ELb0EE6_M_getEv(ptr noundef nonnull align 1 dereferenceable(1) %3) #9
  ret ptr %4
}

; Function Attrs: mustprogress uwtable
define void @_Z35_gmx_sel_evaluate_subexprref_simpleP18gmx_sel_evaluate_tRKSt10shared_ptrIN3gmx20SelectionTreeElementEEP15gmx_ana_index_t(ptr noundef %0, ptr noundef nonnull align 8 dereferenceable(16) %1, ptr noundef %2) #2 {
  %4 = alloca ptr, align 8
  %5 = alloca ptr, align 8
  %6 = alloca ptr, align 8
  store ptr %0, ptr %4, align 8
  store ptr %1, ptr %5, align 8
  store ptr %2, ptr %6, align 8
  %7 = load ptr, ptr %6, align 8
  %8 = icmp ne ptr %7, null
  br i1 %8, label %9, label %52

9:                                                ; preds = %3
  %10 = load ptr, ptr %5, align 8
  %11 = call noundef ptr @_ZNKSt19__shared_ptr_accessIN3gmx20SelectionTreeElementELN9__gnu_cxx12_Lock_policyE2ELb0ELb0EEptEv(ptr noundef nonnull align 1 dereferenceable(1) %10) #9
  %12 = getelementptr inbounds %"class.gmx::SelectionTreeElement", ptr %11, i32 0, i32 7
  %13 = call noundef ptr @_ZNKSt19__shared_ptr_accessIN3gmx20SelectionTreeElementELN9__gnu_cxx12_Lock_policyE2ELb0ELb0EEptEv(ptr noundef nonnull align 1 dereferenceable(1) %12) #9
  %14 = getelementptr inbounds %"class.gmx::SelectionTreeElement", ptr %13, i32 0, i32 1
  %15 = load ptr, ptr %5, align 8
  %16 = call noundef ptr @_ZNKSt19__shared_ptr_accessIN3gmx20SelectionTreeElementELN9__gnu_cxx12_Lock_policyE2ELb0ELb0EEptEv(ptr noundef nonnull align 1 dereferenceable(1) %15) #9
  %17 = getelementptr inbounds %"class.gmx::SelectionTreeElement", ptr %16, i32 0, i32 1
  %18 = getelementptr inbounds %struct.gmx_ana_selvalue_t, ptr %17, i32 0, i32 2
  %19 = load ptr, ptr %18, align 8
  call void @_Z22_gmx_selvalue_setstoreP18gmx_ana_selvalue_tPv(ptr noundef %14, ptr noundef %19)
  %20 = load ptr, ptr %5, align 8
  %21 = call noundef ptr @_ZNKSt19__shared_ptr_accessIN3gmx20SelectionTreeElementELN9__gnu_cxx12_Lock_policyE2ELb0ELb0EEptEv(ptr noundef nonnull align 1 dereferenceable(1) %20) #9
  %22 = getelementptr inbounds %"class.gmx::SelectionTreeElement", ptr %21, i32 0, i32 7
  %23 = call noundef ptr @_ZNKSt19__shared_ptr_accessIN3gmx20SelectionTreeElementELN9__gnu_cxx12_Lock_policyE2ELb0ELb0EEptEv(ptr noundef nonnull align 1 dereferenceable(1) %22) #9
  %24 = getelementptr inbounds %"class.gmx::SelectionTreeElement", ptr %23, i32 0, i32 7
  %25 = call noundef ptr @_ZNKSt19__shared_ptr_accessIN3gmx20SelectionTreeElementELN9__gnu_cxx12_Lock_policyE2ELb0ELb0EEptEv(ptr noundef nonnull align 1 dereferenceable(1) %24) #9
  %26 = getelementptr inbounds %"class.gmx::SelectionTreeElement", ptr %25, i32 0, i32 1
  %27 = load ptr, ptr %5, align 8
  %28 = call noundef ptr @_ZNKSt19__shared_ptr_accessIN3gmx20SelectionTreeElementELN9__gnu_cxx12_Lock_policyE2ELb0ELb0EEptEv(ptr noundef nonnull align 1 dereferenceable(1) %27) #9
  %29 = getelementptr inbounds %"class.gmx::SelectionTreeElement", ptr %28, i32 0, i32 1
  %30 = getelementptr inbounds %struct.gmx_ana_selvalue_t, ptr %29, i32 0, i32 2
  %31 = load ptr, ptr %30, align 8
  %32 = load ptr, ptr %5, align 8
  %33 = call noundef ptr @_ZNKSt19__shared_ptr_accessIN3gmx20SelectionTreeElementELN9__gnu_cxx12_Lock_policyE2ELb0ELb0EEptEv(ptr noundef nonnull align 1 dereferenceable(1) %32) #9
  %34 = getelementptr inbounds %"class.gmx::SelectionTreeElement", ptr %33, i32 0, i32 7
  %35 = call noundef ptr @_ZNKSt19__shared_ptr_accessIN3gmx20SelectionTreeElementELN9__gnu_cxx12_Lock_policyE2ELb0ELb0EEptEv(ptr noundef nonnull align 1 dereferenceable(1) %34) #9
  %36 = getelementptr inbounds %"class.gmx::SelectionTreeElement", ptr %35, i32 0, i32 7
  %37 = call noundef ptr @_ZNKSt19__shared_ptr_accessIN3gmx20SelectionTreeElementELN9__gnu_cxx12_Lock_policyE2ELb0ELb0EEptEv(ptr noundef nonnull align 1 dereferenceable(1) %36) #9
  %38 = getelementptr inbounds %"class.gmx::SelectionTreeElement", ptr %37, i32 0, i32 1
  %39 = getelementptr inbounds %struct.gmx_ana_selvalue_t, ptr %38, i32 0, i32 3
  %40 = load i32, ptr %39, align 8
  call void @_Z28_gmx_selvalue_setstore_allocP18gmx_ana_selvalue_tPvi(ptr noundef %26, ptr noundef %31, i32 noundef %40)
  %41 = load ptr, ptr %5, align 8
  %42 = call noundef ptr @_ZNKSt19__shared_ptr_accessIN3gmx20SelectionTreeElementELN9__gnu_cxx12_Lock_policyE2ELb0ELb0EEptEv(ptr noundef nonnull align 1 dereferenceable(1) %41) #9
  %43 = getelementptr inbounds %"class.gmx::SelectionTreeElement", ptr %42, i32 0, i32 7
  %44 = call noundef ptr @_ZNKSt19__shared_ptr_accessIN3gmx20SelectionTreeElementELN9__gnu_cxx12_Lock_policyE2ELb0ELb0EEptEv(ptr noundef nonnull align 1 dereferenceable(1) %43) #9
  %45 = getelementptr inbounds %"class.gmx::SelectionTreeElement", ptr %44, i32 0, i32 2
  %46 = load ptr, ptr %45, align 8
  %47 = load ptr, ptr %4, align 8
  %48 = load ptr, ptr %5, align 8
  %49 = call noundef ptr @_ZNKSt19__shared_ptr_accessIN3gmx20SelectionTreeElementELN9__gnu_cxx12_Lock_policyE2ELb0ELb0EEptEv(ptr noundef nonnull align 1 dereferenceable(1) %48) #9
  %50 = getelementptr inbounds %"class.gmx::SelectionTreeElement", ptr %49, i32 0, i32 7
  %51 = load ptr, ptr %6, align 8
  call void %46(ptr noundef %47, ptr noundef nonnull align 8 dereferenceable(16) %50, ptr noundef %51)
  br label %52

52:                                               ; preds = %9, %3
  %53 = load ptr, ptr %5, align 8
  %54 = call noundef ptr @_ZNKSt19__shared_ptr_accessIN3gmx20SelectionTreeElementELN9__gnu_cxx12_Lock_policyE2ELb0ELb0EEptEv(ptr noundef nonnull align 1 dereferenceable(1) %53) #9
  %55 = getelementptr inbounds %"class.gmx::SelectionTreeElement", ptr %54, i32 0, i32 7
  %56 = call noundef ptr @_ZNKSt19__shared_ptr_accessIN3gmx20SelectionTreeElementELN9__gnu_cxx12_Lock_policyE2ELb0ELb0EEptEv(ptr noundef nonnull align 1 dereferenceable(1) %55) #9
  %57 = getelementptr inbounds %"class.gmx::SelectionTreeElement", ptr %56, i32 0, i32 1
  %58 = getelementptr inbounds %struct.gmx_ana_selvalue_t, ptr %57, i32 0, i32 1
  %59 = load i32, ptr %58, align 4
  %60 = load ptr, ptr %5, align 8
  %61 = call noundef ptr @_ZNKSt19__shared_ptr_accessIN3gmx20SelectionTreeElementELN9__gnu_cxx12_Lock_policyE2ELb0ELb0EEptEv(ptr noundef nonnull align 1 dereferenceable(1) %60) #9
  %62 = getelementptr inbounds %"class.gmx::SelectionTreeElement", ptr %61, i32 0, i32 1
  %63 = getelementptr inbounds %struct.gmx_ana_selvalue_t, ptr %62, i32 0, i32 1
  store i32 %59, ptr %63, align 4
  %64 = load ptr, ptr %5, align 8
  %65 = call noundef ptr @_ZNKSt19__shared_ptr_accessIN3gmx20SelectionTreeElementELN9__gnu_cxx12_Lock_policyE2ELb0ELb0EEptEv(ptr noundef nonnull align 1 dereferenceable(1) %64) #9
  %66 = getelementptr inbounds %"class.gmx::SelectionTreeElement", ptr %65, i32 0, i32 4
  %67 = load ptr, ptr %66, align 8
  %68 = icmp ne ptr %67, null
  br i1 %68, label %69, label %103

69:                                               ; preds = %52
  %70 = load ptr, ptr %5, align 8
  %71 = call noundef ptr @_ZNKSt19__shared_ptr_accessIN3gmx20SelectionTreeElementELN9__gnu_cxx12_Lock_policyE2ELb0ELb0EEptEv(ptr noundef nonnull align 1 dereferenceable(1) %70) #9
  %72 = getelementptr inbounds %"class.gmx::SelectionTreeElement", ptr %71, i32 0, i32 1
  %73 = getelementptr inbounds %struct.gmx_ana_selvalue_t, ptr %72, i32 0, i32 1
  %74 = load i32, ptr %73, align 4
  %75 = load ptr, ptr %5, align 8
  %76 = call noundef ptr @_ZNKSt19__shared_ptr_accessIN3gmx20SelectionTreeElementELN9__gnu_cxx12_Lock_policyE2ELb0ELb0EEptEv(ptr noundef nonnull align 1 dereferenceable(1) %75) #9
  %77 = getelementptr inbounds %"class.gmx::SelectionTreeElement", ptr %76, i32 0, i32 4
  %78 = load ptr, ptr %77, align 8
  %79 = getelementptr inbounds %struct.gmx_ana_selparam_t, ptr %78, i32 0, i32 1
  %80 = getelementptr inbounds %struct.gmx_ana_selvalue_t, ptr %79, i32 0, i32 1
  store i32 %74, ptr %80, align 4
  %81 = load ptr, ptr %5, align 8
  %82 = call noundef ptr @_ZNKSt19__shared_ptr_accessIN3gmx20SelectionTreeElementELN9__gnu_cxx12_Lock_policyE2ELb0ELb0EEptEv(ptr noundef nonnull align 1 dereferenceable(1) %81) #9
  %83 = getelementptr inbounds %"class.gmx::SelectionTreeElement", ptr %82, i32 0, i32 4
  %84 = load ptr, ptr %83, align 8
  %85 = getelementptr inbounds %struct.gmx_ana_selparam_t, ptr %84, i32 0, i32 2
  %86 = load ptr, ptr %85, align 8
  %87 = icmp ne ptr %86, null
  br i1 %87, label %88, label %102

88:                                               ; preds = %69
  %89 = load ptr, ptr %5, align 8
  %90 = call noundef ptr @_ZNKSt19__shared_ptr_accessIN3gmx20SelectionTreeElementELN9__gnu_cxx12_Lock_policyE2ELb0ELb0EEptEv(ptr noundef nonnull align 1 dereferenceable(1) %89) #9
  %91 = getelementptr inbounds %"class.gmx::SelectionTreeElement", ptr %90, i32 0, i32 4
  %92 = load ptr, ptr %91, align 8
  %93 = getelementptr inbounds %struct.gmx_ana_selparam_t, ptr %92, i32 0, i32 1
  %94 = getelementptr inbounds %struct.gmx_ana_selvalue_t, ptr %93, i32 0, i32 1
  %95 = load i32, ptr %94, align 4
  %96 = load ptr, ptr %5, align 8
  %97 = call noundef ptr @_ZNKSt19__shared_ptr_accessIN3gmx20SelectionTreeElementELN9__gnu_cxx12_Lock_policyE2ELb0ELb0EEptEv(ptr noundef nonnull align 1 dereferenceable(1) %96) #9
  %98 = getelementptr inbounds %"class.gmx::SelectionTreeElement", ptr %97, i32 0, i32 4
  %99 = load ptr, ptr %98, align 8
  %100 = getelementptr inbounds %struct.gmx_ana_selparam_t, ptr %99, i32 0, i32 2
  %101 = load ptr, ptr %100, align 8
  store i32 %95, ptr %101, align 4
  br label %102

102:                                              ; preds = %88, %69
  br label %103

103:                                              ; preds = %102, %52
  ret void
}