; Function Attrs: mustprogress uwtable
define void @_Z35_gmx_sel_evaluate_subexprref_simpleP18gmx_sel_evaluate_tRKSt10shared_ptrIN3gmx20SelectionTreeElementEEP15gmx_ana_index_t(ptr noundef %0, ptr nocapture noundef nonnull readonly align 8 dereferenceable(16) %1, ptr noundef %2) #2 {
  %.not = icmp eq ptr %2, null
  br i1 %.not, label %26, label %4

4:                                                ; preds = %3
  %5 = load ptr, ptr %1, align 8
  %6 = getelementptr inbounds i8, ptr %5, i64 96
  %7 = load ptr, ptr %6, align 8
  %8 = getelementptr inbounds i8, ptr %7, i64 8
  %9 = getelementptr inbounds i8, ptr %5, i64 16
  %10 = load ptr, ptr %9, align 8
  tail call void @_Z22_gmx_selvalue_setstoreP18gmx_ana_selvalue_tPv(ptr noundef nonnull %8, ptr noundef %10)
  %11 = load ptr, ptr %1, align 8
  %12 = getelementptr inbounds i8, ptr %11, i64 96
  %13 = load ptr, ptr %12, align 8
  %14 = getelementptr inbounds i8, ptr %13, i64 96
  %15 = load ptr, ptr %14, align 8
  %16 = getelementptr inbounds i8, ptr %15, i64 8
  %17 = getelementptr inbounds i8, ptr %11, i64 16
  %18 = load ptr, ptr %17, align 8
  %19 = getelementptr inbounds i8, ptr %15, i64 24
  %20 = load i32, ptr %19, align 8
  tail call void @_Z28_gmx_selvalue_setstore_allocP18gmx_ana_selvalue_tPvi(ptr noundef nonnull %16, ptr noundef %18, i32 noundef %20)
  %21 = load ptr, ptr %1, align 8
  %22 = getelementptr inbounds i8, ptr %21, i64 96
  %23 = load ptr, ptr %22, align 8
  %24 = getelementptr inbounds i8, ptr %23, i64 32
  %25 = load ptr, ptr %24, align 8
  tail call void %25(ptr noundef %0, ptr noundef nonnull align 8 dereferenceable(16) %22, ptr noundef nonnull %2)
  br label %26

26:                                               ; preds = %4, %3
  %27 = load ptr, ptr %1, align 8
  %28 = getelementptr inbounds i8, ptr %27, i64 96
  %29 = load ptr, ptr %28, align 8
  %30 = getelementptr inbounds i8, ptr %29, i64 12
  %31 = load i32, ptr %30, align 4
  %32 = getelementptr inbounds i8, ptr %27, i64 12
  store i32 %31, ptr %32, align 4
  %33 = load ptr, ptr %1, align 8
  %34 = getelementptr inbounds i8, ptr %33, i64 48
  %35 = load ptr, ptr %34, align 8
  %.not18 = icmp eq ptr %35, null
  br i1 %.not18, label %48, label %36

36:                                               ; preds = %26
  %37 = getelementptr inbounds i8, ptr %33, i64 12
  %38 = load i32, ptr %37, align 4
  %39 = getelementptr inbounds i8, ptr %35, i64 12
  store i32 %38, ptr %39, align 4
  %40 = load ptr, ptr %1, align 8
  %41 = getelementptr inbounds i8, ptr %40, i64 48
  %42 = load ptr, ptr %41, align 8
  %43 = getelementptr inbounds i8, ptr %42, i64 32
  %44 = load ptr, ptr %43, align 8
  %.not19 = icmp eq ptr %44, null
  br i1 %.not19, label %48, label %45

45:                                               ; preds = %36
  %46 = getelementptr inbounds i8, ptr %42, i64 12
  %47 = load i32, ptr %46, align 4
  store i32 %47, ptr %44, align 4
  br label %48

48:                                               ; preds = %36, %45, %26
  ret void
}